target datalayout = "e-m:e-p270:32:32-p271:32:32-p272:64:64-i64:64-i128:128-f80:128-n8:16:32:64-S128"
target triple = "x86_64-pc-linux-gnu"

%struct.re_pattern_buffer = type { ptr, i32, i32, i32, i32, i32, i32, i32, i32, i32, i32, i32, i32, i32, ptr, ptr, ptr, ptr, i32, i32, i32, i32, i64, i64, i32, ptr, ptr, [256 x i8], ptr, ptr, i64, i64, i64, ptr }
%struct.OnigEncodingTypeST = type { ptr, ptr, i32, i32, ptr, ptr, ptr, ptr, ptr, ptr, ptr, ptr, ptr, ptr, ptr, ptr, ptr, i32, i32 }
%struct.OnigCaseFoldCodeItem = type { i32, i32, [3 x i32] }

; Function Attrs: nounwind sspstrong uwtable
define internal i32 @set_bm_skip(ptr noundef %0, ptr noundef %1, ptr noundef %2, ptr noundef %3, ptr noundef %4, i32 noundef %5) #0 {
  %7 = alloca i32, align 4
  %8 = alloca ptr, align 8
  %9 = alloca ptr, align 8
  %10 = alloca ptr, align 8
  %11 = alloca ptr, align 8
  %12 = alloca ptr, align 8
  %13 = alloca i32, align 4
  %14 = alloca i64, align 8
  %15 = alloca i64, align 8
  %16 = alloca i32, align 4
  %17 = alloca i32, align 4
  %18 = alloca i32, align 4
  %19 = alloca i32, align 4
  %20 = alloca i32, align 4
  %21 = alloca ptr, align 8
  %22 = alloca [13 x [18 x i8]], align 16
  %23 = alloca [13 x %struct.OnigCaseFoldCodeItem], align 16
  %24 = alloca ptr, align 8
  %25 = alloca i32, align 4
  store ptr %0, ptr %8, align 8, !tbaa !35
  store ptr %1, ptr %9, align 8, !tbaa !35
  store ptr %2, ptr %10, align 8, !tbaa !21
  store ptr %3, ptr %11, align 8, !tbaa !35
  store ptr %4, ptr %12, align 8, !tbaa !289
  store i32 %5, ptr %13, align 4, !tbaa !7
  call void @llvm.lifetime.start.p0(i64 8, ptr %14) #11
  call void @llvm.lifetime.start.p0(i64 8, ptr %15) #11
  call void @llvm.lifetime.start.p0(i64 4, ptr %16) #11
  call void @llvm.lifetime.start.p0(i64 4, ptr %17) #11
  call void @llvm.lifetime.start.p0(i64 4, ptr %18) #11
  call void @llvm.lifetime.start.p0(i64 4, ptr %19) #11
  call void @llvm.lifetime.start.p0(i64 4, ptr %20) #11
  call void @llvm.lifetime.start.p0(i64 8, ptr %21) #11
  call void @llvm.lifetime.start.p0(i64 234, ptr %22) #11
  call void @llvm.lifetime.start.p0(i64 260, ptr %23) #11
  call void @llvm.lifetime.start.p0(i64 8, ptr %24) #11
  %26 = load ptr, ptr %10, align 8, !tbaa !21
  %27 = getelementptr inbounds nuw %struct.re_pattern_buffer, ptr %26, i32 0, i32 15
  %28 = load ptr, ptr %27, align 8, !tbaa !142
  store ptr %28, ptr %24, align 8, !tbaa !37
  %29 = load ptr, ptr %9, align 8, !tbaa !35
  %30 = load ptr, ptr %8, align 8, !tbaa !35
  %31 = ptrtoint ptr %29 to i64
  %32 = ptrtoint ptr %30 to i64
  %33 = sub i64 %31, %32
  store i64 %33, ptr %15, align 8, !tbaa !14
  %34 = load i64, ptr %15, align 8, !tbaa !14
  %35 = icmp ult i64 %34, 256
  br i1 %35, label %36, label %216

36:                                               ; preds = %6
  store i64 0, ptr %14, align 8, !tbaa !14
  br label %37

37:                                               ; preds = %47, %36
  %38 = load i64, ptr %14, align 8, !tbaa !14
  %39 = icmp ult i64 %38, 256
  br i1 %39, label %40, label %50

40:                                               ; preds = %37
  %41 = load i64, ptr %15, align 8, !tbaa !14
  %42 = add i64 %41, 1
  %43 = trunc i64 %42 to i8
  %44 = load ptr, ptr %11, align 8, !tbaa !35
  %45 = load i64, ptr %14, align 8, !tbaa !14
  %46 = getelementptr i8, ptr %44, i64 %45
  store i8 %43, ptr %46, align 1, !tbaa !38
  br label %47

47:                                               ; preds = %40
  %48 = load i64, ptr %14, align 8, !tbaa !14
  %49 = add i64 %48, 1
  store i64 %49, ptr %14, align 8, !tbaa !14
  br label %37, !llvm.loop !291

50:                                               ; preds = %37
  store i32 0, ptr %18, align 4, !tbaa !7
  store i64 0, ptr %14, align 8, !tbaa !14
  br label %51

51:                                               ; preds = %210, %50
  %52 = load i64, ptr %14, align 8, !tbaa !14
  %53 = load i64, ptr %15, align 8, !tbaa !14
  %54 = icmp ult i64 %52, %53
  br i1 %54, label %55, label %215

55:                                               ; preds = %51
  %56 = load ptr, ptr %8, align 8, !tbaa !35
  %57 = load i64, ptr %14, align 8, !tbaa !14
  %58 = getelementptr i8, ptr %56, i64 %57
  store ptr %58, ptr %21, align 8, !tbaa !35
  %59 = load i32, ptr %13, align 4, !tbaa !7
  %60 = icmp ne i32 %59, 0
  br i1 %60, label %61, label %73

61:                                               ; preds = %55
  %62 = load ptr, ptr %24, align 8, !tbaa !37
  %63 = getelementptr inbounds nuw %struct.OnigEncodingTypeST, ptr %62, i32 0, i32 10
  %64 = load ptr, ptr %63, align 8, !tbaa !204
  %65 = load ptr, ptr %10, align 8, !tbaa !21
  %66 = getelementptr inbounds nuw %struct.re_pattern_buffer, ptr %65, i32 0, i32 18
  %67 = load i32, ptr %66, align 8, !tbaa !147
  %68 = load ptr, ptr %21, align 8, !tbaa !35
  %69 = load ptr, ptr %9, align 8, !tbaa !35
  %70 = getelementptr inbounds [13 x %struct.OnigCaseFoldCodeItem], ptr %23, i64 0, i64 0
  %71 = load ptr, ptr %24, align 8, !tbaa !37
  %72 = call i32 %64(i32 noundef %67, ptr noundef %68, ptr noundef %69, ptr noundef %70, ptr noundef %71)
  store i32 %72, ptr %18, align 4, !tbaa !7
  br label %73

73:                                               ; preds = %61, %55
  %74 = load ptr, ptr %24, align 8, !tbaa !37
  %75 = getelementptr inbounds nuw %struct.OnigEncodingTypeST, ptr %74, i32 0, i32 2
  %76 = load i32, ptr %75, align 8, !tbaa !205
  %77 = load ptr, ptr %24, align 8, !tbaa !37
  %78 = getelementptr inbounds nuw %struct.OnigEncodingTypeST, ptr %77, i32 0, i32 3
  %79 = load i32, ptr %78, align 4, !tbaa !189
  %80 = icmp eq i32 %76, %79
  br i1 %80, label %81, label %92

81:                                               ; preds = %73
  %82 = load ptr, ptr %21, align 8, !tbaa !35
  %83 = load ptr, ptr %9, align 8, !tbaa !35
  %84 = icmp ult ptr %82, %83
  br i1 %84, label %85, label %89

85:                                               ; preds = %81
  %86 = load ptr, ptr %24, align 8, !tbaa !37
  %87 = getelementptr inbounds nuw %struct.OnigEncodingTypeST, ptr %86, i32 0, i32 3
  %88 = load i32, ptr %87, align 4, !tbaa !189
  br label %90

89:                                               ; preds = %81
  br label %90

90:                                               ; preds = %89, %85
  %91 = phi i32 [ %88, %85 ], [ 0, %89 ]
  br label %97

92:                                               ; preds = %73
  %93 = load ptr, ptr %21, align 8, !tbaa !35
  %94 = load ptr, ptr %9, align 8, !tbaa !35
  %95 = load ptr, ptr %24, align 8, !tbaa !37
  %96 = call i32 @onigenc_mbclen(ptr noundef %93, ptr noundef %94, ptr noundef %95)
  br label %97

97:                                               ; preds = %92, %90
  %98 = phi i32 [ %91, %90 ], [ %96, %92 ]
  store i32 %98, ptr %16, align 4, !tbaa !7
  %99 = load ptr, ptr %21, align 8, !tbaa !35
  %100 = load i32, ptr %16, align 4, !tbaa !7
  %101 = sext i32 %100 to i64
  %102 = getelementptr i8, ptr %99, i64 %101
  %103 = load ptr, ptr %9, align 8, !tbaa !35
  %104 = icmp ugt ptr %102, %103
  br i1 %104, label %105, label %112

105:                                              ; preds = %97
  %106 = load ptr, ptr %9, align 8, !tbaa !35
  %107 = load ptr, ptr %21, align 8, !tbaa !35
  %108 = ptrtoint ptr %106 to i64
  %109 = ptrtoint ptr %107 to i64
  %110 = sub i64 %108, %109
  %111 = trunc i64 %110 to i32
  store i32 %111, ptr %16, align 4, !tbaa !7
  br label %112

112:                                              ; preds = %105, %97
  store i32 0, ptr %19, align 4, !tbaa !7
  br label %113

113:                                              ; preds = %154, %112
  %114 = load i32, ptr %19, align 4, !tbaa !7
  %115 = load i32, ptr %18, align 4, !tbaa !7
  %116 = icmp slt i32 %114, %115
  br i1 %116, label %117, label %157

117:                                              ; preds = %113
  %118 = load i32, ptr %19, align 4, !tbaa !7
  %119 = sext i32 %118 to i64
  %120 = getelementptr [13 x %struct.OnigCaseFoldCodeItem], ptr %23, i64 0, i64 %119
  %121 = getelementptr inbounds nuw %struct.OnigCaseFoldCodeItem, ptr %120, i32 0, i32 1
  %122 = load i32, ptr %121, align 4, !tbaa !220
  %123 = icmp ne i32 %122, 1
  br i1 %123, label %132, label %124

124:                                              ; preds = %117
  %125 = load i32, ptr %19, align 4, !tbaa !7
  %126 = sext i32 %125 to i64
  %127 = getelementptr [13 x %struct.OnigCaseFoldCodeItem], ptr %23, i64 0, i64 %126
  %128 = getelementptr inbounds nuw %struct.OnigCaseFoldCodeItem, ptr %127, i32 0, i32 0
  %129 = load i32, ptr %128, align 4, !tbaa !218
  %130 = load i32, ptr %16, align 4, !tbaa !7
  %131 = icmp ne i32 %129, %130
  br i1 %131, label %132, label %133

132:                                              ; preds = %124, %117
  store i32 1, ptr %7, align 4
  store i32 1, ptr %25, align 4
  br label %218

133:                                              ; preds = %124
  %134 = load ptr, ptr %24, align 8, !tbaa !37
  %135 = getelementptr inbounds nuw %struct.OnigEncodingTypeST, ptr %134, i32 0, i32 7
  %136 = load ptr, ptr %135, align 8, !tbaa !226
  %137 = load i32, ptr %19, align 4, !tbaa !7
  %138 = sext i32 %137 to i64
  %139 = getelementptr [13 x %struct.OnigCaseFoldCodeItem], ptr %23, i64 0, i64 %138
  %140 = getelementptr inbounds nuw %struct.OnigCaseFoldCodeItem, ptr %139, i32 0, i32 2
  %141 = getelementptr [3 x i32], ptr %140, i64 0, i64 0
  %142 = load i32, ptr %141, align 4, !tbaa !7
  %143 = load i32, ptr %19, align 4, !tbaa !7
  %144 = sext i32 %143 to i64
  %145 = getelementptr [13 x [18 x i8]], ptr %22, i64 0, i64 %144
  %146 = getelementptr inbounds [18 x i8], ptr %145, i64 0, i64 0
  %147 = load ptr, ptr %24, align 8, !tbaa !37
  %148 = call i32 %136(i32 noundef %142, ptr noundef %146, ptr noundef %147)
  store i32 %148, ptr %17, align 4, !tbaa !7
  %149 = load i32, ptr %17, align 4, !tbaa !7
  %150 = load i32, ptr %16, align 4, !tbaa !7
  %151 = icmp ne i32 %149, %150
  br i1 %151, label %152, label %153

152:                                              ; preds = %133
  store i32 1, ptr %7, align 4
  store i32 1, ptr %25, align 4
  br label %218

153:                                              ; preds = %133
  br label %154

154:                                              ; preds = %153
  %155 = load i32, ptr %19, align 4, !tbaa !7
  %156 = add i32 %155, 1
  store i32 %156, ptr %19, align 4, !tbaa !7
  br label %113, !llvm.loop !292

157:                                              ; preds = %113
  store i32 0, ptr %19, align 4, !tbaa !7
  br label %158

158:                                              ; preds = %206, %157
  %159 = load i32, ptr %19, align 4, !tbaa !7
  %160 = load i32, ptr %16, align 4, !tbaa !7
  %161 = icmp slt i32 %159, %160
  br i1 %161, label %162, label %209

162:                                              ; preds = %158
  %163 = load i64, ptr %15, align 8, !tbaa !14
  %164 = load i64, ptr %14, align 8, !tbaa !14
  %165 = sub i64 %163, %164
  %166 = load i32, ptr %19, align 4, !tbaa !7
  %167 = sext i32 %166 to i64
  %168 = sub i64 %165, %167
  %169 = trunc i64 %168 to i8
  %170 = load ptr, ptr %11, align 8, !tbaa !35
  %171 = load ptr, ptr %8, align 8, !tbaa !35
  %172 = load i64, ptr %14, align 8, !tbaa !14
  %173 = load i32, ptr %19, align 4, !tbaa !7
  %174 = sext i32 %173 to i64
  %175 = add i64 %172, %174
  %176 = getelementptr i8, ptr %171, i64 %175
  %177 = load i8, ptr %176, align 1, !tbaa !38
  %178 = zext i8 %177 to i64
  %179 = getelementptr i8, ptr %170, i64 %178
  store i8 %169, ptr %179, align 1, !tbaa !38
  store i32 0, ptr %20, align 4, !tbaa !7
  br label %180

180:                                              ; preds = %202, %162
  %181 = load i32, ptr %20, align 4, !tbaa !7
  %182 = load i32, ptr %18, align 4, !tbaa !7
  %183 = icmp slt i32 %181, %182
  br i1 %183, label %184, label %205

184:                                              ; preds = %180
  %185 = load i64, ptr %15, align 8, !tbaa !14
  %186 = load i64, ptr %14, align 8, !tbaa !14
  %187 = sub i64 %185, %186
  %188 = load i32, ptr %19, align 4, !tbaa !7
  %189 = sext i32 %188 to i64
  %190 = sub i64 %187, %189
  %191 = trunc i64 %190 to i8
  %192 = load ptr, ptr %11, align 8, !tbaa !35
  %193 = load i32, ptr %20, align 4, !tbaa !7
  %194 = sext i32 %193 to i64
  %195 = getelementptr [13 x [18 x i8]], ptr %22, i64 0, i64 %194
  %196 = load i32, ptr %19, align 4, !tbaa !7
  %197 = sext i32 %196 to i64
  %198 = getelementptr [18 x i8], ptr %195, i64 0, i64 %197
  %199 = load i8, ptr %198, align 1, !tbaa !38
  %200 = zext i8 %199 to i64
  %201 = getelementptr i8, ptr %192, i64 %200
  store i8 %191, ptr %201, align 1, !tbaa !38
  br label %202

202:                                              ; preds = %184
  %203 = load i32, ptr %20, align 4, !tbaa !7
  %204 = add i32 %203, 1
  store i32 %204, ptr %20, align 4, !tbaa !7
  br label %180, !llvm.loop !293

205:                                              ; preds = %180
  br label %206

206:                                              ; preds = %205
  %207 = load i32, ptr %19, align 4, !tbaa !7
  %208 = add i32 %207, 1
  store i32 %208, ptr %19, align 4, !tbaa !7
  br label %158, !llvm.loop !294

209:                                              ; preds = %158
  br label %210

210:                                              ; preds = %209
  %211 = load i32, ptr %16, align 4, !tbaa !7
  %212 = sext i32 %211 to i64
  %213 = load i64, ptr %14, align 8, !tbaa !14
  %214 = add i64 %213, %212
  store i64 %214, ptr %14, align 8, !tbaa !14
  br label %51, !llvm.loop !295

215:                                              ; preds = %51
  br label %217

216:                                              ; preds = %6
  store i32 -6, ptr %7, align 4
  store i32 1, ptr %25, align 4
  br label %218

217:                                              ; preds = %215
  store i32 0, ptr %7, align 4
  store i32 1, ptr %25, align 4
  br label %218

218:                                              ; preds = %217, %216, %152, %132
  call void @llvm.lifetime.end.p0(i64 8, ptr %24) #11
  call void @llvm.lifetime.end.p0(i64 260, ptr %23) #11
  call void @llvm.lifetime.end.p0(i64 234, ptr %22) #11
  call void @llvm.lifetime.end.p0(i64 8, ptr %21) #11
  call void @llvm.lifetime.end.p0(i64 4, ptr %20) #11
  call void @llvm.lifetime.end.p0(i64 4, ptr %19) #11
  call void @llvm.lifetime.end.p0(i64 4, ptr %18) #11
  call void @llvm.lifetime.end.p0(i64 4, ptr %17) #11
  call void @llvm.lifetime.end.p0(i64 4, ptr %16) #11
  call void @llvm.lifetime.end.p0(i64 8, ptr %15) #11
  call void @llvm.lifetime.end.p0(i64 8, ptr %14) #11
  %219 = load i32, ptr %7, align 4
  ret i32 %219
}