; Function Attrs: nounwind sspstrong uwtable
define internal fastcc range(i32 -6, 2) i32 @set_bm_skip(ptr noundef %0, ptr noundef %1, ptr noundef readonly captures(none) %2, ptr noundef writeonly captures(none) %3, i32 noundef range(i32 0, 2) %4) unnamed_addr #4 {
  %6 = alloca [13 x [18 x i8]], align 16
  %7 = alloca [13 x %struct.OnigCaseFoldCodeItem], align 16
  call void @llvm.lifetime.start.p0(i64 234, ptr nonnull %6) #20
  call void @llvm.lifetime.start.p0(i64 260, ptr nonnull %7) #20
  %8 = getelementptr inbounds nuw i8, ptr %2, i64 72
  %9 = load ptr, ptr %8, align 8, !tbaa !73
  %10 = ptrtoint ptr %1 to i64
  %11 = ptrtoint ptr %0 to i64
  %12 = sub i64 %10, %11
  %13 = icmp ult i64 %12, 256
  br i1 %13, label %.preheader4, label %.loopexit

.preheader4:                                      ; preds = %5
  %14 = trunc nuw i64 %12 to i8
  %15 = add i8 %14, 1
  tail call void @llvm.memset.p0.i64(ptr noundef nonnull align 1 dereferenceable(256) %3, i8 %15, i64 256, i1 false), !tbaa !34
  %.not15 = icmp eq ptr %1, %0
  br i1 %.not15, label %.loopexit, label %.lr.ph14

.lr.ph14:                                         ; preds = %.preheader4
  %.not = icmp eq i32 %4, 0
  %16 = getelementptr inbounds nuw i8, ptr %9, i64 72
  %17 = getelementptr inbounds nuw i8, ptr %2, i64 96
  %18 = getelementptr inbounds nuw i8, ptr %9, i64 16
  %19 = getelementptr inbounds nuw i8, ptr %9, i64 20
  %20 = getelementptr inbounds nuw i8, ptr %9, i64 48
  br label %21

21:                                               ; preds = %.lr.ph14, %._crit_edge11
  %.113 = phi i64 [ 0, %.lr.ph14 ], [ %78, %._crit_edge11 ]
  %.06912 = phi i32 [ 0, %.lr.ph14 ], [ %.170, %._crit_edge11 ]
  %22 = getelementptr i8, ptr %0, i64 %.113
  br i1 %.not, label %27, label %23

23:                                               ; preds = %21
  %24 = load ptr, ptr %16, align 8, !tbaa !158
  %25 = load i32, ptr %17, align 8, !tbaa !78
  %26 = call i32 %24(i32 noundef %25, ptr noundef %22, ptr noundef %1, ptr noundef nonnull %7, ptr noundef %9) #20
  br label %27

27:                                               ; preds = %23, %21
  %.170 = phi i32 [ %26, %23 ], [ %.06912, %21 ]
  %28 = load i32, ptr %18, align 8, !tbaa !159
  %29 = load i32, ptr %19, align 4, !tbaa !160
  %30 = icmp eq i32 %28, %29
  br i1 %30, label %31, label %33

31:                                               ; preds = %27
  %32 = icmp ult ptr %22, %1
  %spec.select = select i1 %32, i32 %28, i32 0
  br label %35

33:                                               ; preds = %27
  %34 = call i32 @onigenc_mbclen(ptr noundef %22, ptr noundef %1, ptr noundef nonnull %9) #20
  br label %35

35:                                               ; preds = %31, %33
  %36 = phi i32 [ %34, %33 ], [ %spec.select, %31 ]
  %37 = sext i32 %36 to i64
  %38 = getelementptr i8, ptr %22, i64 %37
  %39 = icmp ugt ptr %38, %1
  %40 = ptrtoint ptr %22 to i64
  %41 = sub i64 %10, %40
  %42 = trunc i64 %41 to i32
  %.071 = select i1 %39, i32 %42, i32 %36
  %43 = icmp sgt i32 %.170, 0
  br i1 %43, label %.lr.ph.preheader, label %.preheader.thread

.lr.ph.preheader:                                 ; preds = %35
  %wide.trip.count = zext nneg i32 %.170 to i64
  br label %.lr.ph

44:                                               ; preds = %64
  %indvars.iv.next = add nuw nsw i64 %indvars.iv, 1
  %exitcond.not = icmp eq i64 %indvars.iv.next, %wide.trip.count
  br i1 %exitcond.not, label %.preheader, label %.lr.ph, !llvm.loop !288

.preheader:                                       ; preds = %44
  %45 = icmp sgt i32 %.071, 0
  br i1 %45, label %.lr.ph8.us.preheader, label %._crit_edge11

.preheader.thread:                                ; preds = %35
  %46 = icmp sgt i32 %.071, 0
  br i1 %46, label %.lr.ph10.split.preheader, label %._crit_edge11

.lr.ph10.split.preheader:                         ; preds = %.preheader.thread
  %wide.trip.count22 = zext nneg i32 %.071 to i64
  br label %.lr.ph10.split

.lr.ph8.us.preheader:                             ; preds = %.preheader
  %wide.trip.count32 = zext nneg i32 %.071 to i64
  %wide.trip.count27 = zext nneg i32 %.170 to i64
  br label %.lr.ph8.us

.lr.ph8.us:                                       ; preds = %.lr.ph8.us.preheader, %._crit_edge.us
  %indvars.iv29 = phi i64 [ 0, %.lr.ph8.us.preheader ], [ %indvars.iv.next30, %._crit_edge.us ]
  %47 = add i64 %.113, %indvars.iv29
  %48 = sub i64 %12, %47
  %49 = trunc i64 %48 to i8
  %50 = getelementptr i8, ptr %22, i64 %indvars.iv29
  %51 = load i8, ptr %50, align 1, !tbaa !34
  %52 = zext i8 %51 to i64
  %53 = getelementptr i8, ptr %3, i64 %52
  store i8 %49, ptr %53, align 1, !tbaa !34
  br label %54

54:                                               ; preds = %.lr.ph8.us, %54
  %indvars.iv24 = phi i64 [ 0, %.lr.ph8.us ], [ %indvars.iv.next25, %54 ]
  %55 = getelementptr [13 x [18 x i8]], ptr %6, i64 0, i64 %indvars.iv24, i64 %indvars.iv29
  %56 = load i8, ptr %55, align 1, !tbaa !34
  %57 = zext i8 %56 to i64
  %58 = getelementptr i8, ptr %3, i64 %57
  store i8 %49, ptr %58, align 1, !tbaa !34
  %indvars.iv.next25 = add nuw nsw i64 %indvars.iv24, 1
  %exitcond28.not = icmp eq i64 %indvars.iv.next25, %wide.trip.count27
  br i1 %exitcond28.not, label %._crit_edge.us, label %54, !llvm.loop !289

._crit_edge.us:                                   ; preds = %54
  %indvars.iv.next30 = add nuw nsw i64 %indvars.iv29, 1
  %exitcond33.not = icmp eq i64 %indvars.iv.next30, %wide.trip.count32
  br i1 %exitcond33.not, label %._crit_edge11, label %.lr.ph8.us, !llvm.loop !290

.lr.ph:                                           ; preds = %.lr.ph.preheader, %44
  %indvars.iv = phi i64 [ 0, %.lr.ph.preheader ], [ %indvars.iv.next, %44 ]
  %59 = getelementptr [13 x %struct.OnigCaseFoldCodeItem], ptr %7, i64 0, i64 %indvars.iv
  %60 = getelementptr inbounds nuw i8, ptr %59, i64 4
  %61 = load i32, ptr %60, align 4, !tbaa !164
  %.not74 = icmp eq i32 %61, 1
  br i1 %.not74, label %62, label %.loopexit

62:                                               ; preds = %.lr.ph
  %63 = load i32, ptr %59, align 4, !tbaa !162
  %.not75 = icmp eq i32 %63, %.071
  br i1 %.not75, label %64, label %.loopexit

64:                                               ; preds = %62
  %65 = load ptr, ptr %20, align 8, !tbaa !167
  %66 = getelementptr inbounds nuw i8, ptr %59, i64 8
  %67 = load i32, ptr %66, align 4, !tbaa !7
  %68 = getelementptr [13 x [18 x i8]], ptr %6, i64 0, i64 %indvars.iv
  %69 = call i32 %65(i32 noundef %67, ptr noundef %68, ptr noundef nonnull %9) #20
  %.not76 = icmp eq i32 %69, %.071
  br i1 %.not76, label %44, label %.loopexit

.lr.ph10.split:                                   ; preds = %.lr.ph10.split.preheader, %.lr.ph10.split
  %indvars.iv19 = phi i64 [ 0, %.lr.ph10.split.preheader ], [ %indvars.iv.next20, %.lr.ph10.split ]
  %70 = add i64 %.113, %indvars.iv19
  %71 = sub i64 %12, %70
  %72 = trunc i64 %71 to i8
  %73 = getelementptr i8, ptr %22, i64 %indvars.iv19
  %74 = load i8, ptr %73, align 1, !tbaa !34
  %75 = zext i8 %74 to i64
  %76 = getelementptr i8, ptr %3, i64 %75
  store i8 %72, ptr %76, align 1, !tbaa !34
  %indvars.iv.next20 = add nuw nsw i64 %indvars.iv19, 1
  %exitcond23.not = icmp eq i64 %indvars.iv.next20, %wide.trip.count22
  br i1 %exitcond23.not, label %._crit_edge11, label %.lr.ph10.split, !llvm.loop !290

._crit_edge11:                                    ; preds = %.lr.ph10.split, %._crit_edge.us, %.preheader.thread, %.preheader
  %77 = sext i32 %.071 to i64
  %78 = add nsw i64 %.113, %77
  %79 = icmp ult i64 %78, %12
  br i1 %79, label %21, label %.loopexit, !llvm.loop !291

.loopexit:                                        ; preds = %._crit_edge11, %64, %.lr.ph, %62, %.preheader4, %5
  %.0 = phi i32 [ -6, %5 ], [ 0, %.preheader4 ], [ 1, %62 ], [ 1, %.lr.ph ], [ 1, %64 ], [ 0, %._crit_edge11 ]
  call void @llvm.lifetime.end.p0(i64 260, ptr nonnull %7) #20
  call void @llvm.lifetime.end.p0(i64 234, ptr nonnull %6) #20
  ret i32 %.0
}